target datalayout = "e-m:e-p270:32:32-p271:32:32-p272:64:64-i64:64-i128:128-f80:128-n8:16:32:64-S128"
target triple = "x86_64-pc-linux-gnu"

%"class.ade::MemoryAccessor" = type { %"class.std::vector", %"struct.ade::util::DynMdView", %"class.std::__cxx11::list", %"class.std::function" }
%"class.std::vector" = type { %"struct.std::_Vector_base" }
%"struct.std::_Vector_base" = type { %"struct.std::_Vector_base<ade::IMemoryAccessListener *, std::allocator<ade::IMemoryAccessListener *>>::_Vector_impl" }
%"struct.std::_Vector_base<ade::IMemoryAccessListener *, std::allocator<ade::IMemoryAccessListener *>>::_Vector_impl" = type { %"struct.std::_Vector_base<ade::IMemoryAccessListener *, std::allocator<ade::IMemoryAccessListener *>>::_Vector_impl_data" }
%"struct.std::_Vector_base<ade::IMemoryAccessListener *, std::allocator<ade::IMemoryAccessListener *>>::_Vector_impl_data" = type { ptr, ptr, ptr }
%"struct.ade::util::DynMdView" = type { %"struct.std::array", i64, %"struct.ade::util::MemoryRange" }
%"struct.std::array" = type { [6 x %"struct.ade::util::SliceDimension"] }
%"struct.ade::util::SliceDimension" = type { i32, i32 }
%"struct.ade::util::MemoryRange" = type { ptr, i64 }
%"class.std::__cxx11::list" = type { %"class.std::__cxx11::_List_base" }
%"class.std::__cxx11::_List_base" = type { %"struct.std::__cxx11::_List_base<ade::MemoryAccessor::SavedHandles, std::allocator<ade::MemoryAccessor::SavedHandles>>::_List_impl" }
%"struct.std::__cxx11::_List_base<ade::MemoryAccessor::SavedHandles, std::allocator<ade::MemoryAccessor::SavedHandles>>::_List_impl" = type { %"struct.std::__detail::_List_node_header" }
%"struct.std::__detail::_List_node_header" = type { %"struct.std::__detail::_List_node_base", i64 }
%"struct.std::__detail::_List_node_base" = type { ptr, ptr }
%"class.std::function" = type { %"class.std::_Function_base", ptr }
%"class.std::_Function_base" = type { %"union.std::_Any_data", ptr }
%"union.std::_Any_data" = type { %"union.std::_Nocopy_types" }
%"union.std::_Nocopy_types" = type { { i64, i64 } }

; Function Attrs: mustprogress nounwind uwtable
define linkonce_odr hidden void @_ZNSt8__detail17_List_node_header7_M_initEv(ptr noundef nonnull align 8 dereferenceable(24) %0) #0 comdat align 2 {
  %2 = alloca ptr, align 8
  store ptr %0, ptr %2, align 8, !tbaa !136
  %3 = load ptr, ptr %2, align 8
  %4 = getelementptr inbounds nuw %"struct.std::__detail::_List_node_base", ptr %3, i32 0, i32 1
  store ptr %3, ptr %4, align 8, !tbaa !140
  %5 = getelementptr inbounds nuw %"struct.std::__detail::_List_node_base", ptr %3, i32 0, i32 0
  store ptr %3, ptr %5, align 8, !tbaa !30
  %6 = getelementptr inbounds nuw %"struct.std::__detail::_List_node_header", ptr %3, i32 0, i32 1
  store i64 0, ptr %6, align 8, !tbaa !141
  ret void
}

; Function Attrs: mustprogress nounwind uwtable
define linkonce_odr hidden void @_ZNSt15__new_allocatorISt10_List_nodeIN3ade14MemoryAccessor12SavedHandlesEEEC2Ev(ptr noundef nonnull align 1 dereferenceable(1) %0) unnamed_addr #0 comdat align 2 {
  %2 = alloca ptr, align 8
  store ptr %0, ptr %2, align 8, !tbaa !138
  ret void
}

; Function Attrs: mustprogress nounwind uwtable
define linkonce_odr hidden void @_ZNSt15__new_allocatorIPN3ade21IMemoryAccessListenerEEC2Ev(ptr noundef nonnull align 1 dereferenceable(1) %0) unnamed_addr #0 comdat align 2 {
  %2 = alloca ptr, align 8
  store ptr %0, ptr %2, align 8, !tbaa !118
  ret void
}

; Function Attrs: mustprogress nounwind uwtable
define linkonce_odr hidden void @_ZNSt8__detail17_List_node_headerC2Ev(ptr noundef nonnull align 8 dereferenceable(24) %0) unnamed_addr #0 comdat align 2 {
  %2 = alloca ptr, align 8
  store ptr %0, ptr %2, align 8, !tbaa !136
  %3 = load ptr, ptr %2, align 8
  call void @_ZNSt8__detail17_List_node_header7_M_initEv(ptr noundef nonnull align 8 dereferenceable(24) %3) #13
  ret void
}

; Function Attrs: mustprogress nounwind uwtable
define linkonce_odr hidden void @_ZNSaISt10_List_nodeIN3ade14MemoryAccessor12SavedHandlesEEEC2Ev(ptr noundef nonnull align 1 dereferenceable(1) %0) unnamed_addr #0 comdat align 2 {
  %2 = alloca ptr, align 8
  store ptr %0, ptr %2, align 8, !tbaa !134
  %3 = load ptr, ptr %2, align 8
  call void @_ZNSt15__new_allocatorISt10_List_nodeIN3ade14MemoryAccessor12SavedHandlesEEEC2Ev(ptr noundef nonnull align 1 dereferenceable(1) %3) #13
  ret void
}

; Function Attrs: mustprogress nounwind uwtable
define linkonce_odr hidden void @_ZNSt12_Vector_baseIPN3ade21IMemoryAccessListenerESaIS2_EE17_Vector_impl_dataC2Ev(ptr noundef nonnull align 8 dereferenceable(24) %0) unnamed_addr #0 comdat align 2 {
  %2 = alloca ptr, align 8
  store ptr %0, ptr %2, align 8, !tbaa !116
  %3 = load ptr, ptr %2, align 8
  %4 = getelementptr inbounds nuw %"struct.std::_Vector_base<ade::IMemoryAccessListener *, std::allocator<ade::IMemoryAccessListener *>>::_Vector_impl_data", ptr %3, i32 0, i32 0
  store ptr null, ptr %4, align 8, !tbaa !49
  %5 = getelementptr inbounds nuw %"struct.std::_Vector_base<ade::IMemoryAccessListener *, std::allocator<ade::IMemoryAccessListener *>>::_Vector_impl_data", ptr %3, i32 0, i32 1
  store ptr null, ptr %5, align 8, !tbaa !51
  %6 = getelementptr inbounds nuw %"struct.std::_Vector_base<ade::IMemoryAccessListener *, std::allocator<ade::IMemoryAccessListener *>>::_Vector_impl_data", ptr %3, i32 0, i32 2
  store ptr null, ptr %6, align 8, !tbaa !52
  ret void
}

; Function Attrs: mustprogress nounwind uwtable
define linkonce_odr hidden void @_ZNSaIPN3ade21IMemoryAccessListenerEEC2Ev(ptr noundef nonnull align 1 dereferenceable(1) %0) unnamed_addr #0 comdat align 2 {
  %2 = alloca ptr, align 8
  store ptr %0, ptr %2, align 8, !tbaa !114
  %3 = load ptr, ptr %2, align 8
  call void @_ZNSt15__new_allocatorIPN3ade21IMemoryAccessListenerEEC2Ev(ptr noundef nonnull align 1 dereferenceable(1) %3) #13
  ret void
}

; Function Attrs: mustprogress nounwind uwtable
define linkonce_odr hidden void @_ZNSt7__cxx1110_List_baseIN3ade14MemoryAccessor12SavedHandlesESaIS3_EE10_List_implC2Ev(ptr noundef nonnull align 8 dereferenceable(24) %0) unnamed_addr #0 comdat align 2 {
  %2 = alloca ptr, align 8
  store ptr %0, ptr %2, align 8, !tbaa !132
  %3 = load ptr, ptr %2, align 8
  call void @_ZNSaISt10_List_nodeIN3ade14MemoryAccessor12SavedHandlesEEEC2Ev(ptr noundef nonnull align 1 dereferenceable(1) %3) #13
  %4 = getelementptr inbounds nuw %"struct.std::__cxx11::_List_base<ade::MemoryAccessor::SavedHandles, std::allocator<ade::MemoryAccessor::SavedHandles>>::_List_impl", ptr %3, i32 0, i32 0
  call void @_ZNSt8__detail17_List_node_headerC2Ev(ptr noundef nonnull align 8 dereferenceable(24) %4) #13
  ret void
}

; Function Attrs: inlinehint mustprogress nounwind uwtable
define linkonce_odr hidden void @_ZN3ade4util14SliceDimensionC2Ev(ptr noundef nonnull align 4 dereferenceable(8) %0) unnamed_addr #4 comdat align 2 {
  %2 = alloca ptr, align 8
  store ptr %0, ptr %2, align 8, !tbaa !126
  %3 = load ptr, ptr %2, align 8
  %4 = getelementptr inbounds nuw %"struct.ade::util::SliceDimension", ptr %3, i32 0, i32 0
  store i32 0, ptr %4, align 4, !tbaa !128
  %5 = getelementptr inbounds nuw %"struct.ade::util::SliceDimension", ptr %3, i32 0, i32 1
  store i32 0, ptr %5, align 4, !tbaa !131
  ret void
}

; Function Attrs: mustprogress nounwind uwtable
define linkonce_odr hidden void @_ZNSt12_Vector_baseIPN3ade21IMemoryAccessListenerESaIS2_EE12_Vector_implC2Ev(ptr noundef nonnull align 8 dereferenceable(24) %0) unnamed_addr #0 comdat align 2 {
  %2 = alloca ptr, align 8
  store ptr %0, ptr %2, align 8, !tbaa !112
  %3 = load ptr, ptr %2, align 8
  call void @_ZNSaIPN3ade21IMemoryAccessListenerEEC2Ev(ptr noundef nonnull align 1 dereferenceable(1) %3) #13
  call void @_ZNSt12_Vector_baseIPN3ade21IMemoryAccessListenerESaIS2_EE17_Vector_impl_dataC2Ev(ptr noundef nonnull align 8 dereferenceable(24) %3) #13
  ret void
}

; Function Attrs: mustprogress nounwind uwtable
define linkonce_odr hidden void @_ZNSt14_Function_baseC2Ev(ptr noundef nonnull align 8 dereferenceable(24) %0) unnamed_addr #0 comdat align 2 {
  %2 = alloca ptr, align 8
  store ptr %0, ptr %2, align 8, !tbaa !44
  %3 = load ptr, ptr %2, align 8
  %4 = getelementptr inbounds nuw %"class.std::_Function_base", ptr %3, i32 0, i32 0
  store ptr null, ptr %4, align 8, !tbaa !74
  %5 = getelementptr inbounds nuw %"class.std::_Function_base", ptr %3, i32 0, i32 1
  store ptr null, ptr %5, align 8, !tbaa !46
  ret void
}

; Function Attrs: mustprogress nounwind uwtable
define linkonce_odr hidden void @_ZNSt7__cxx1110_List_baseIN3ade14MemoryAccessor12SavedHandlesESaIS3_EEC2Ev(ptr noundef nonnull align 8 dereferenceable(24) %0) unnamed_addr #0 comdat align 2 {
  %2 = alloca ptr, align 8
  store ptr %0, ptr %2, align 8, !tbaa !47
  %3 = load ptr, ptr %2, align 8
  %4 = getelementptr inbounds nuw %"class.std::__cxx11::_List_base", ptr %3, i32 0, i32 0
  call void @_ZNSt7__cxx1110_List_baseIN3ade14MemoryAccessor12SavedHandlesESaIS3_EE10_List_implC2Ev(ptr noundef nonnull align 8 dereferenceable(24) %4) #13
  ret void
}

; Function Attrs: mustprogress nounwind uwtable
define linkonce_odr hidden void @_ZN3ade4util11MemoryRangeIvEC2Ev(ptr noundef nonnull align 8 dereferenceable(16) %0) unnamed_addr #0 comdat align 2 {
  %2 = alloca ptr, align 8
  store ptr %0, ptr %2, align 8, !tbaa !122
  %3 = load ptr, ptr %2, align 8
  %4 = getelementptr inbounds nuw %"struct.ade::util::MemoryRange", ptr %3, i32 0, i32 0
  store ptr null, ptr %4, align 8, !tbaa !124
  %5 = getelementptr inbounds nuw %"struct.ade::util::MemoryRange", ptr %3, i32 0, i32 1
  store i64 0, ptr %5, align 8, !tbaa !125
  ret void
}

; Function Attrs: inlinehint mustprogress nounwind uwtable
define linkonce_odr hidden void @_ZNSt5arrayIN3ade4util14SliceDimensionELm6EEC2Ev(ptr noundef nonnull align 4 dereferenceable(48) %0) unnamed_addr #4 comdat align 2 {
  %2 = alloca ptr, align 8
  store ptr %0, ptr %2, align 8, !tbaa !120
  %3 = load ptr, ptr %2, align 8
  %4 = getelementptr inbounds nuw %"struct.std::array", ptr %3, i32 0, i32 0
  %5 = getelementptr inbounds [6 x %"struct.ade::util::SliceDimension"], ptr %4, i32 0, i32 0
  %6 = getelementptr inbounds %"struct.ade::util::SliceDimension", ptr %5, i64 6
  br label %7

7:                                                ; preds = %7, %1
  %8 = phi ptr [ %5, %1 ], [ %9, %7 ]
  call void @_ZN3ade4util14SliceDimensionC2Ev(ptr noundef nonnull align 4 dereferenceable(8) %8) #13
  %9 = getelementptr inbounds %"struct.ade::util::SliceDimension", ptr %8, i64 1
  %10 = icmp eq ptr %9, %6
  br i1 %10, label %11, label %7

11:                                               ; preds = %7
  ret void
}

; Function Attrs: mustprogress nounwind uwtable
define linkonce_odr hidden void @_ZNSt12_Vector_baseIPN3ade21IMemoryAccessListenerESaIS2_EEC2Ev(ptr noundef nonnull align 8 dereferenceable(24) %0) unnamed_addr #0 comdat align 2 {
  %2 = alloca ptr, align 8
  store ptr %0, ptr %2, align 8, !tbaa !110
  %3 = load ptr, ptr %2, align 8
  %4 = getelementptr inbounds nuw %"struct.std::_Vector_base", ptr %3, i32 0, i32 0
  call void @_ZNSt12_Vector_baseIPN3ade21IMemoryAccessListenerESaIS2_EE12_Vector_implC2Ev(ptr noundef nonnull align 8 dereferenceable(24) %4) #13
  ret void
}

; Function Attrs: mustprogress nounwind uwtable
define linkonce_odr hidden void @_ZNSt8functionIFvPKcEEC2Ev(ptr noundef nonnull align 8 dereferenceable(32) %0) unnamed_addr #0 comdat align 2 {
  %2 = alloca ptr, align 8
  store ptr %0, ptr %2, align 8, !tbaa !19
  %3 = load ptr, ptr %2, align 8
  %4 = getelementptr inbounds i8, ptr %3, i64 0
  call void @llvm.memset.p0.i64(ptr align 8 %4, i8 0, i64 24, i1 false)
  call void @_ZNSt14_Function_baseC2Ev(ptr noundef nonnull align 8 dereferenceable(24) %3) #13
  %5 = getelementptr inbounds nuw %"class.std::function", ptr %3, i32 0, i32 1
  store ptr null, ptr %5, align 8, !tbaa !21
  ret void
}

; Function Attrs: mustprogress nounwind uwtable
define linkonce_odr hidden void @_ZNSt7__cxx114listIN3ade14MemoryAccessor12SavedHandlesESaIS3_EEC2Ev(ptr noundef nonnull align 8 dereferenceable(24) %0) unnamed_addr #0 comdat align 2 {
  %2 = alloca ptr, align 8
  store ptr %0, ptr %2, align 8, !tbaa !17
  %3 = load ptr, ptr %2, align 8
  call void @_ZNSt7__cxx1110_List_baseIN3ade14MemoryAccessor12SavedHandlesESaIS3_EEC2Ev(ptr noundef nonnull align 8 dereferenceable(24) %3) #13
  ret void
}

; Function Attrs: mustprogress nounwind uwtable
define linkonce_odr hidden void @_ZN3ade4util9DynMdViewILm6EvEC2Ev(ptr noundef nonnull align 8 dereferenceable(72) %0) unnamed_addr #0 comdat align 2 {
  %2 = alloca ptr, align 8
  store ptr %0, ptr %2, align 8, !tbaa !10
  %3 = load ptr, ptr %2, align 8
  %4 = getelementptr inbounds nuw %"struct.ade::util::DynMdView", ptr %3, i32 0, i32 0
  call void @_ZNSt5arrayIN3ade4util14SliceDimensionELm6EEC2Ev(ptr noundef nonnull align 4 dereferenceable(48) %4) #13
  %5 = getelementptr inbounds nuw %"struct.ade::util::DynMdView", ptr %3, i32 0, i32 1
  store i64 0, ptr %5, align 8, !tbaa !12
  %6 = getelementptr inbounds nuw %"struct.ade::util::DynMdView", ptr %3, i32 0, i32 2
  call void @_ZN3ade4util11MemoryRangeIvEC2Ev(ptr noundef nonnull align 8 dereferenceable(16) %6) #13
  ret void
}

; Function Attrs: mustprogress nounwind uwtable
define linkonce_odr hidden void @_ZNSt6vectorIPN3ade21IMemoryAccessListenerESaIS2_EEC2Ev(ptr noundef nonnull align 8 dereferenceable(24) %0) unnamed_addr #0 comdat align 2 {
  %2 = alloca ptr, align 8
  store ptr %0, ptr %2, align 8, !tbaa !8
  %3 = load ptr, ptr %2, align 8
  call void @_ZNSt12_Vector_baseIPN3ade21IMemoryAccessListenerESaIS2_EEC2Ev(ptr noundef nonnull align 8 dereferenceable(24) %3) #13
  ret void
}

; Function Attrs: mustprogress nounwind uwtable
define hidden void @_ZN3ade14MemoryAccessorC2Ev(ptr noundef nonnull align 8 dereferenceable(152) %0) unnamed_addr #0 align 2 {
  %2 = alloca ptr, align 8
  store ptr %0, ptr %2, align 8, !tbaa !3
  %3 = load ptr, ptr %2, align 8
  %4 = getelementptr inbounds nuw %"class.ade::MemoryAccessor", ptr %3, i32 0, i32 0
  call void @_ZNSt6vectorIPN3ade21IMemoryAccessListenerESaIS2_EEC2Ev(ptr noundef nonnull align 8 dereferenceable(24) %4) #13
  %5 = getelementptr inbounds nuw %"class.ade::MemoryAccessor", ptr %3, i32 0, i32 1
  call void @_ZN3ade4util9DynMdViewILm6EvEC2Ev(ptr noundef nonnull align 8 dereferenceable(72) %5) #13
  %6 = getelementptr inbounds nuw %"class.ade::MemoryAccessor", ptr %3, i32 0, i32 2
  call void @_ZNSt7__cxx114listIN3ade14MemoryAccessor12SavedHandlesESaIS3_EEC2Ev(ptr noundef nonnull align 8 dereferenceable(24) %6) #13
  %7 = getelementptr inbounds nuw %"class.ade::MemoryAccessor", ptr %3, i32 0, i32 3
  call void @_ZNSt8functionIFvPKcEEC2Ev(ptr noundef nonnull align 8 dereferenceable(32) %7) #13
  ret void
}